; Function Attrs: mustprogress uwtable
define hidden noundef ptr @_ZNK7datalog10table_base5cloneEv(ptr noundef nonnull align 8 dereferenceable(36) %0) unnamed_addr #3 align 2 personality ptr @__gxx_personality_v0 {
  %2 = alloca %class.svector, align 8
  %3 = alloca %"class.datalog::table_base::iterator", align 8
  %4 = alloca %"class.datalog::table_base::iterator", align 8
  %5 = getelementptr inbounds nuw i8, ptr %0, i64 8
  %6 = load ptr, ptr %5, align 8, !tbaa !371
  %7 = getelementptr inbounds nuw i8, ptr %0, i64 16
  %8 = load ptr, ptr %6, align 8, !tbaa !3
  %9 = getelementptr inbounds nuw i8, ptr %8, i64 40
  %10 = load ptr, ptr %9, align 8
  %11 = tail call noundef ptr %10(ptr noundef nonnull align 8 dereferenceable(32) %6, ptr noundef nonnull align 8 dereferenceable(12) %7)
  call void @llvm.lifetime.start.p0(i64 8, ptr nonnull %2) #24
  store ptr null, ptr %2, align 8, !tbaa !328
  call void @llvm.lifetime.start.p0(i64 8, ptr nonnull %3) #24
  %12 = load ptr, ptr %0, align 8, !tbaa !3
  %13 = getelementptr inbounds nuw i8, ptr %12, i64 200
  %14 = load ptr, ptr %13, align 8
  invoke void %14(ptr dead_on_unwind nonnull writable sret(%"class.datalog::table_base::iterator") align 8 %3, ptr noundef nonnull align 8 dereferenceable(36) %0)
          to label %15 unwind label %57

15:                                               ; preds = %1
  call void @llvm.lifetime.start.p0(i64 8, ptr nonnull %4) #24
  %16 = load ptr, ptr %0, align 8, !tbaa !3
  %17 = getelementptr inbounds nuw i8, ptr %16, i64 208
  %18 = load ptr, ptr %17, align 8
  invoke void %18(ptr dead_on_unwind nonnull writable sret(%"class.datalog::table_base::iterator") align 8 %4, ptr noundef nonnull align 8 dereferenceable(36) %0)
          to label %_ZN7datalog10table_base8iteratorppEv.exit unwind label %59

_ZN7datalog10table_base8iteratorppEv.exit:        ; preds = %15, %76
  %19 = load ptr, ptr %3, align 8, !tbaa !357
  %20 = load ptr, ptr %4, align 8, !tbaa !357
  %21 = load ptr, ptr %19, align 8, !tbaa !3
  %22 = getelementptr inbounds nuw i8, ptr %21, i64 40
  %23 = load ptr, ptr %22, align 8
  %24 = invoke noundef zeroext i1 %23(ptr noundef nonnull align 8 dereferenceable(12) %19, ptr noundef nonnull align 8 dereferenceable(12) %20)
          to label %25 unwind label %61

25:                                               ; preds = %_ZN7datalog10table_base8iteratorppEv.exit
  br i1 %24, label %26, label %63

26:                                               ; preds = %25
  %27 = load ptr, ptr %4, align 8, !tbaa !357
  %.not.i.i.i = icmp eq ptr %27, null
  br i1 %.not.i.i.i, label %_ZN7datalog10table_base8iteratorD2Ev.exit, label %28

28:                                               ; preds = %26
  %29 = getelementptr inbounds nuw i8, ptr %27, i64 8
  %30 = load i32, ptr %29, align 8, !tbaa !360
  %31 = add i32 %30, -1
  store i32 %31, ptr %29, align 8, !tbaa !360
  %32 = icmp eq i32 %31, 0
  br i1 %32, label %33, label %_ZN7datalog10table_base8iteratorD2Ev.exit

33:                                               ; preds = %28
  %34 = load ptr, ptr %27, align 8, !tbaa !3
  %35 = load ptr, ptr %34, align 8
  call void %35(ptr noundef nonnull align 8 dereferenceable(12) %27) #24
  invoke void @_ZN6memory10deallocateEPv(ptr noundef nonnull align 8 dereferenceable(12) %27)
          to label %_ZN7datalog10table_base8iteratorD2Ev.exit unwind label %36

36:                                               ; preds = %33
  %37 = landingpad { ptr, i32 }
          catch ptr null
  %38 = extractvalue { ptr, i32 } %37, 0
  call void @__clang_call_terminate(ptr %38) #27
  unreachable

_ZN7datalog10table_base8iteratorD2Ev.exit:        ; preds = %26, %28, %33
  call void @llvm.lifetime.end.p0(i64 8, ptr nonnull %4) #24
  %39 = load ptr, ptr %3, align 8, !tbaa !357
  %.not.i.i.i13 = icmp eq ptr %39, null
  br i1 %.not.i.i.i13, label %_ZN7datalog10table_base8iteratorD2Ev.exit14, label %40

40:                                               ; preds = %_ZN7datalog10table_base8iteratorD2Ev.exit
  %41 = getelementptr inbounds nuw i8, ptr %39, i64 8
  %42 = load i32, ptr %41, align 8, !tbaa !360
  %43 = add i32 %42, -1
  store i32 %43, ptr %41, align 8, !tbaa !360
  %44 = icmp eq i32 %43, 0
  br i1 %44, label %45, label %_ZN7datalog10table_base8iteratorD2Ev.exit14

45:                                               ; preds = %40
  %46 = load ptr, ptr %39, align 8, !tbaa !3
  %47 = load ptr, ptr %46, align 8
  call void %47(ptr noundef nonnull align 8 dereferenceable(12) %39) #24
  invoke void @_ZN6memory10deallocateEPv(ptr noundef nonnull align 8 dereferenceable(12) %39)
          to label %_ZN7datalog10table_base8iteratorD2Ev.exit14 unwind label %48

48:                                               ; preds = %45
  %49 = landingpad { ptr, i32 }
          catch ptr null
  %50 = extractvalue { ptr, i32 } %49, 0
  call void @__clang_call_terminate(ptr %50) #27
  unreachable

_ZN7datalog10table_base8iteratorD2Ev.exit14:      ; preds = %_ZN7datalog10table_base8iteratorD2Ev.exit, %40, %45
  call void @llvm.lifetime.end.p0(i64 8, ptr nonnull %3) #24
  %51 = load ptr, ptr %2, align 8, !tbaa !328
  %.not.i.i = icmp eq ptr %51, null
  br i1 %.not.i.i, label %_ZN6vectorImLb0EjED2Ev.exit, label %52

52:                                               ; preds = %_ZN7datalog10table_base8iteratorD2Ev.exit14
  %53 = getelementptr inbounds i8, ptr %51, i64 -8
  invoke void @_ZN6memory10deallocateEPv(ptr noundef nonnull %53)
          to label %_ZN6vectorImLb0EjED2Ev.exit unwind label %54

54:                                               ; preds = %52
  %55 = landingpad { ptr, i32 }
          catch ptr null
  %56 = extractvalue { ptr, i32 } %55, 0
  call void @__clang_call_terminate(ptr %56) #27
  unreachable

_ZN6vectorImLb0EjED2Ev.exit:                      ; preds = %_ZN7datalog10table_base8iteratorD2Ev.exit14, %52
  call void @llvm.lifetime.end.p0(i64 8, ptr nonnull %2) #24
  ret ptr %11

57:                                               ; preds = %1
  %58 = landingpad { ptr, i32 }
          cleanup
  br label %85

59:                                               ; preds = %15
  %60 = landingpad { ptr, i32 }
          cleanup
  br label %84

61:                                               ; preds = %76, %_ZN7datalog10table_base8iteratorppEv.exit
  %62 = landingpad { ptr, i32 }
          cleanup
  br label %83

63:                                               ; preds = %25
  %64 = load ptr, ptr %3, align 8, !tbaa !357
  %65 = load ptr, ptr %64, align 8, !tbaa !3
  %66 = getelementptr inbounds nuw i8, ptr %65, i64 24
  %67 = load ptr, ptr %66, align 8
  %68 = invoke noundef nonnull align 8 dereferenceable(16) ptr %67(ptr noundef nonnull align 8 dereferenceable(12) %64)
          to label %_ZN7datalog10table_base8iteratordeEv.exit unwind label %81

_ZN7datalog10table_base8iteratordeEv.exit:        ; preds = %63
  %69 = load ptr, ptr %68, align 8, !tbaa !3
  %70 = getelementptr inbounds nuw i8, ptr %69, i64 24
  %71 = load ptr, ptr %70, align 8
  invoke void %71(ptr noundef nonnull align 8 dereferenceable(16) %68, ptr noundef nonnull align 8 dereferenceable(8) %2)
          to label %72 unwind label %81

72:                                               ; preds = %_ZN7datalog10table_base8iteratordeEv.exit
  %73 = load ptr, ptr %11, align 8, !tbaa !3
  %74 = getelementptr inbounds nuw i8, ptr %73, i64 48
  %75 = load ptr, ptr %74, align 8
  invoke void %75(ptr noundef nonnull align 8 dereferenceable(36) %11, ptr noundef nonnull align 8 dereferenceable(8) %2)
          to label %76 unwind label %81

76:                                               ; preds = %72
  %77 = load ptr, ptr %3, align 8, !tbaa !357
  %78 = load ptr, ptr %77, align 8, !tbaa !3
  %79 = getelementptr inbounds nuw i8, ptr %78, i64 32
  %80 = load ptr, ptr %79, align 8
  invoke void %80(ptr noundef nonnull align 8 dereferenceable(12) %77)
          to label %_ZN7datalog10table_base8iteratorppEv.exit unwind label %61

81:                                               ; preds = %63, %72, %_ZN7datalog10table_base8iteratordeEv.exit
  %82 = landingpad { ptr, i32 }
          cleanup
  br label %83

83:                                               ; preds = %81, %61
  %.pn = phi { ptr, i32 } [ %62, %61 ], [ %82, %81 ]
  call void @_ZN7datalog10table_base8iteratorD2Ev(ptr noundef nonnull align 8 dereferenceable(8) %4) #24
  br label %84

84:                                               ; preds = %83, %59
  %.pn.pn = phi { ptr, i32 } [ %.pn, %83 ], [ %60, %59 ]
  call void @llvm.lifetime.end.p0(i64 8, ptr nonnull %4) #24
  call void @_ZN7datalog10table_base8iteratorD2Ev(ptr noundef nonnull align 8 dereferenceable(8) %3) #24
  br label %85

85:                                               ; preds = %84, %57
  %.pn.pn.pn = phi { ptr, i32 } [ %.pn.pn, %84 ], [ %58, %57 ]
  call void @llvm.lifetime.end.p0(i64 8, ptr nonnull %3) #24
  call void @_ZN6vectorImLb0EjED2Ev(ptr noundef nonnull align 8 dereferenceable(8) %2) #24
  call void @llvm.lifetime.end.p0(i64 8, ptr nonnull %2) #24
  resume { ptr, i32 } %.pn.pn.pn
}